target datalayout = "e-m:e-p270:32:32-p271:32:32-p272:64:64-i64:64-i128:128-f80:128-n8:16:32:64-S128"
target triple = "x86_64-pc-linux-gnu"

%"class.lean::object_ref" = type { ptr }
%"class.lean::expr" = type { %"class.lean::object_ref" }
%"class.lean::rb_map" = type { %"class.lean::rb_tree" }
%"class.lean::rb_tree" = type { %"struct.lean::rb_tree<std::pair<lean::(anonymous namespace)::cache_key, lean::expr>, lean::rb_map<lean::(anonymous namespace)::cache_key, lean::expr, lean::(anonymous namespace)::cache_key_cmp>::entry_cmp>::node" }
%"struct.lean::rb_tree<std::pair<lean::(anonymous namespace)::cache_key, lean::expr>, lean::rb_map<lean::(anonymous namespace)::cache_key, lean::expr, lean::(anonymous namespace)::cache_key_cmp>::entry_cmp>::node" = type { ptr }
%"struct.lean::rb_tree<std::pair<lean::(anonymous namespace)::cache_key, lean::expr>, lean::rb_map<lean::(anonymous namespace)::cache_key, lean::expr, lean::(anonymous namespace)::cache_key_cmp>::entry_cmp>::node_cell" = type { %"struct.lean::rb_tree<std::pair<lean::(anonymous namespace)::cache_key, lean::expr>, lean::rb_map<lean::(anonymous namespace)::cache_key, lean::expr, lean::(anonymous namespace)::cache_key_cmp>::entry_cmp>::node", %"struct.lean::rb_tree<std::pair<lean::(anonymous namespace)::cache_key, lean::expr>, lean::rb_map<lean::(anonymous namespace)::cache_key, lean::expr, lean::(anonymous namespace)::cache_key_cmp>::entry_cmp>::node", %"struct.std::pair", i8, %"struct.std::atomic" }
%"struct.std::pair" = type { %"struct.lean::(anonymous namespace)::cache_key", %"class.lean::expr" }
%"struct.lean::(anonymous namespace)::cache_key" = type <{ %"class.lean::expr", i8, [7 x i8] }>
%"struct.std::atomic" = type { %"struct.std::__atomic_base" }
%"struct.std::__atomic_base" = type { i32 }
%"class.lean::flet.58" = type { ptr, %"class.lean::rb_map" }

; Function Attrs: alwaysinline mustprogress nounwind uwtable
define linkonce_odr hidden noundef i32 @_ZNSt13__atomic_baseIjE9fetch_addEjSt12memory_order(ptr noundef nonnull align 4 dereferenceable(4) %0, i32 noundef %1, i32 noundef %2) #7 comdat align 2 {
  %4 = alloca ptr, align 8
  %5 = alloca i32, align 4
  %6 = alloca i32, align 4
  %7 = alloca i32, align 4
  %8 = alloca i32, align 4
  store ptr %0, ptr %4, align 8, !tbaa !86
  store i32 %1, ptr %5, align 4, !tbaa !83
  store i32 %2, ptr %6, align 4, !tbaa !84
  %9 = load ptr, ptr %4, align 8
  %10 = getelementptr inbounds nuw %"struct.std::__atomic_base", ptr %9, i32 0, i32 0
  %11 = load i32, ptr %6, align 4, !tbaa !84
  %12 = load i32, ptr %5, align 4, !tbaa !83
  store i32 %12, ptr %7, align 4, !tbaa !83
  switch i32 %11, label %13 [
    i32 1, label %16
    i32 2, label %16
    i32 3, label %19
    i32 4, label %22
    i32 5, label %25
  ]

13:                                               ; preds = %3
  %14 = load i32, ptr %7, align 4
  %15 = atomicrmw add ptr %10, i32 %14 monotonic, align 4
  store i32 %15, ptr %8, align 4
  br label %28

16:                                               ; preds = %3, %3
  %17 = load i32, ptr %7, align 4
  %18 = atomicrmw add ptr %10, i32 %17 acquire, align 4
  store i32 %18, ptr %8, align 4
  br label %28

19:                                               ; preds = %3
  %20 = load i32, ptr %7, align 4
  %21 = atomicrmw add ptr %10, i32 %20 release, align 4
  store i32 %21, ptr %8, align 4
  br label %28

22:                                               ; preds = %3
  %23 = load i32, ptr %7, align 4
  %24 = atomicrmw add ptr %10, i32 %23 acq_rel, align 4
  store i32 %24, ptr %8, align 4
  br label %28

25:                                               ; preds = %3
  %26 = load i32, ptr %7, align 4
  %27 = atomicrmw add ptr %10, i32 %26 seq_cst, align 4
  store i32 %27, ptr %8, align 4
  br label %28

28:                                               ; preds = %25, %22, %19, %16, %13
  %29 = load i32, ptr %8, align 4, !tbaa !83
  ret i32 %29
}

; Function Attrs: inlinehint mustprogress nounwind uwtable
define linkonce_odr noundef i32 @_ZSt25atomic_fetch_add_explicitIjET_PSt6atomicIS0_ENS2_15difference_typeESt12memory_order(ptr noundef %0, i32 noundef %1, i32 noundef %2) #3 comdat {
  %4 = alloca ptr, align 8
  %5 = alloca i32, align 4
  %6 = alloca i32, align 4
  store ptr %0, ptr %4, align 8, !tbaa !81
  store i32 %1, ptr %5, align 4, !tbaa !83
  store i32 %2, ptr %6, align 4, !tbaa !84
  %7 = load ptr, ptr %4, align 8, !tbaa !81
  %8 = load i32, ptr %5, align 4, !tbaa !83
  %9 = load i32, ptr %6, align 4, !tbaa !84
  %10 = call noundef i32 @_ZNSt13__atomic_baseIjE9fetch_addEjSt12memory_order(ptr noundef nonnull align 4 dereferenceable(4) %7, i32 noundef %8, i32 noundef %9) #15
  ret i32 %10
}

; Function Attrs: mustprogress nounwind uwtable
define internal void @_ZN4lean7rb_treeISt4pairINS_12_GLOBAL__N_19cache_keyENS_4exprEENS_6rb_mapIS3_S4_NS2_13cache_key_cmpEE9entry_cmpEE9node_cell7inc_refEv(ptr noundef nonnull align 8 dereferenceable(48) %0) #4 align 2 {
  %2 = alloca ptr, align 8
  store ptr %0, ptr %2, align 8, !tbaa !80
  %3 = load ptr, ptr %2, align 8
  %4 = getelementptr inbounds nuw %"struct.lean::rb_tree<std::pair<lean::(anonymous namespace)::cache_key, lean::expr>, lean::rb_map<lean::(anonymous namespace)::cache_key, lean::expr, lean::(anonymous namespace)::cache_key_cmp>::entry_cmp>::node_cell", ptr %3, i32 0, i32 4
  %5 = call noundef i32 @_ZSt25atomic_fetch_add_explicitIjET_PSt6atomicIS0_ENS2_15difference_typeESt12memory_order(ptr noundef %4, i32 noundef 1, i32 noundef 0) #15
  ret void
}

; Function Attrs: mustprogress uwtable
define internal noundef nonnull align 8 dereferenceable(8) ptr @_ZN4lean7rb_treeISt4pairINS_12_GLOBAL__N_19cache_keyENS_4exprEENS_6rb_mapIS3_S4_NS2_13cache_key_cmpEE9entry_cmpEE4nodeaSERKSB_(ptr noundef nonnull align 8 dereferenceable(8) %0, ptr noundef nonnull align 8 dereferenceable(8) %1) #0 align 2 {
  %3 = alloca ptr, align 8
  %4 = alloca ptr, align 8
  %5 = alloca ptr, align 8
  store ptr %0, ptr %3, align 8, !tbaa !74
  store ptr %1, ptr %4, align 8, !tbaa !74
  %6 = load ptr, ptr %3, align 8
  %7 = load ptr, ptr %4, align 8, !tbaa !74
  %8 = getelementptr inbounds nuw %"struct.lean::rb_tree<std::pair<lean::(anonymous namespace)::cache_key, lean::expr>, lean::rb_map<lean::(anonymous namespace)::cache_key, lean::expr, lean::(anonymous namespace)::cache_key_cmp>::entry_cmp>::node", ptr %7, i32 0, i32 0
  %9 = load ptr, ptr %8, align 8, !tbaa !76
  %10 = icmp ne ptr %9, null
  br i1 %10, label %11, label %15

11:                                               ; preds = %2
  %12 = load ptr, ptr %4, align 8, !tbaa !74
  %13 = getelementptr inbounds nuw %"struct.lean::rb_tree<std::pair<lean::(anonymous namespace)::cache_key, lean::expr>, lean::rb_map<lean::(anonymous namespace)::cache_key, lean::expr, lean::(anonymous namespace)::cache_key_cmp>::entry_cmp>::node", ptr %12, i32 0, i32 0
  %14 = load ptr, ptr %13, align 8, !tbaa !76
  call void @_ZN4lean7rb_treeISt4pairINS_12_GLOBAL__N_19cache_keyENS_4exprEENS_6rb_mapIS3_S4_NS2_13cache_key_cmpEE9entry_cmpEE9node_cell7inc_refEv(ptr noundef nonnull align 8 dereferenceable(48) %14)
  br label %15

15:                                               ; preds = %11, %2
  call void @llvm.lifetime.start.p0(i64 8, ptr %5) #15
  %16 = load ptr, ptr %4, align 8, !tbaa !74
  %17 = getelementptr inbounds nuw %"struct.lean::rb_tree<std::pair<lean::(anonymous namespace)::cache_key, lean::expr>, lean::rb_map<lean::(anonymous namespace)::cache_key, lean::expr, lean::(anonymous namespace)::cache_key_cmp>::entry_cmp>::node", ptr %16, i32 0, i32 0
  %18 = load ptr, ptr %17, align 8, !tbaa !76
  store ptr %18, ptr %5, align 8, !tbaa !80
  %19 = getelementptr inbounds nuw %"struct.lean::rb_tree<std::pair<lean::(anonymous namespace)::cache_key, lean::expr>, lean::rb_map<lean::(anonymous namespace)::cache_key, lean::expr, lean::(anonymous namespace)::cache_key_cmp>::entry_cmp>::node", ptr %6, i32 0, i32 0
  %20 = load ptr, ptr %19, align 8, !tbaa !76
  %21 = icmp ne ptr %20, null
  br i1 %21, label %22, label %25

22:                                               ; preds = %15
  %23 = getelementptr inbounds nuw %"struct.lean::rb_tree<std::pair<lean::(anonymous namespace)::cache_key, lean::expr>, lean::rb_map<lean::(anonymous namespace)::cache_key, lean::expr, lean::(anonymous namespace)::cache_key_cmp>::entry_cmp>::node", ptr %6, i32 0, i32 0
  %24 = load ptr, ptr %23, align 8, !tbaa !76
  call void @_ZN4lean7rb_treeISt4pairINS_12_GLOBAL__N_19cache_keyENS_4exprEENS_6rb_mapIS3_S4_NS2_13cache_key_cmpEE9entry_cmpEE9node_cell7dec_refEv(ptr noundef nonnull align 8 dereferenceable(48) %24)
  br label %25

25:                                               ; preds = %22, %15
  %26 = load ptr, ptr %5, align 8, !tbaa !80
  %27 = getelementptr inbounds nuw %"struct.lean::rb_tree<std::pair<lean::(anonymous namespace)::cache_key, lean::expr>, lean::rb_map<lean::(anonymous namespace)::cache_key, lean::expr, lean::(anonymous namespace)::cache_key_cmp>::entry_cmp>::node", ptr %6, i32 0, i32 0
  store ptr %26, ptr %27, align 8, !tbaa !76
  call void @llvm.lifetime.end.p0(i64 8, ptr %5) #15
  ret ptr %6
}

; Function Attrs: inlinehint mustprogress nounwind uwtable
define internal void @_ZN4lean7rb_treeISt4pairINS_12_GLOBAL__N_19cache_keyENS_4exprEENS_6rb_mapIS3_S4_NS2_13cache_key_cmpEE9entry_cmpEED2Ev(ptr noundef nonnull align 8 dereferenceable(8) %0) unnamed_addr #3 align 2 {
  %2 = alloca ptr, align 8
  store ptr %0, ptr %2, align 8, !tbaa !72
  %3 = load ptr, ptr %2, align 8
  %4 = getelementptr inbounds nuw %"class.lean::rb_tree", ptr %3, i32 0, i32 0
  call void @_ZN4lean7rb_treeISt4pairINS_12_GLOBAL__N_19cache_keyENS_4exprEENS_6rb_mapIS3_S4_NS2_13cache_key_cmpEE9entry_cmpEE4nodeD2Ev(ptr noundef nonnull align 8 dereferenceable(8) %4) #15
  ret void
}

; Function Attrs: mustprogress uwtable
define internal noundef nonnull align 8 dereferenceable(8) ptr @_ZN4lean7rb_treeISt4pairINS_12_GLOBAL__N_19cache_keyENS_4exprEENS_6rb_mapIS3_S4_NS2_13cache_key_cmpEE9entry_cmpEEaSERKSA_(ptr noundef nonnull align 8 dereferenceable(8) %0, ptr noundef nonnull align 8 dereferenceable(8) %1) #0 align 2 {
  %3 = alloca ptr, align 8
  %4 = alloca ptr, align 8
  store ptr %0, ptr %3, align 8, !tbaa !72
  store ptr %1, ptr %4, align 8, !tbaa !72
  %5 = load ptr, ptr %3, align 8
  %6 = load ptr, ptr %4, align 8, !tbaa !72
  %7 = getelementptr inbounds nuw %"class.lean::rb_tree", ptr %6, i32 0, i32 0
  %8 = getelementptr inbounds nuw %"class.lean::rb_tree", ptr %5, i32 0, i32 0
  %9 = call noundef nonnull align 8 dereferenceable(8) ptr @_ZN4lean7rb_treeISt4pairINS_12_GLOBAL__N_19cache_keyENS_4exprEENS_6rb_mapIS3_S4_NS2_13cache_key_cmpEE9entry_cmpEE4nodeaSERKSB_(ptr noundef nonnull align 8 dereferenceable(8) %8, ptr noundef nonnull align 8 dereferenceable(8) %7)
  ret ptr %5
}

; Function Attrs: noinline noreturn nounwind uwtable
define linkonce_odr hidden void @__clang_call_terminate(ptr noundef %0) #9 comdat {
  %2 = call ptr @__cxa_begin_catch(ptr %0) #15
  call void @_ZSt9terminatev() #16
  unreachable
}

; Function Attrs: inlinehint mustprogress nounwind uwtable
define internal void @_ZN4lean6rb_mapINS_12_GLOBAL__N_19cache_keyENS_4exprENS1_13cache_key_cmpEED2Ev(ptr noundef nonnull align 8 dereferenceable(8) %0) unnamed_addr #3 align 2 {
  %2 = alloca ptr, align 8
  store ptr %0, ptr %2, align 8, !tbaa !57
  %3 = load ptr, ptr %2, align 8
  %4 = getelementptr inbounds nuw %"class.lean::rb_map", ptr %3, i32 0, i32 0
  call void @_ZN4lean7rb_treeISt4pairINS_12_GLOBAL__N_19cache_keyENS_4exprEENS_6rb_mapIS3_S4_NS2_13cache_key_cmpEE9entry_cmpEED2Ev(ptr noundef nonnull align 8 dereferenceable(8) %4) #15
  ret void
}

; Function Attrs: inlinehint mustprogress uwtable
define internal noundef nonnull align 8 dereferenceable(8) ptr @_ZN4lean6rb_mapINS_12_GLOBAL__N_19cache_keyENS_4exprENS1_13cache_key_cmpEEaSERKS5_(ptr noundef nonnull align 8 dereferenceable(8) %0, ptr noundef nonnull align 8 dereferenceable(8) %1) #5 align 2 {
  %3 = alloca ptr, align 8
  %4 = alloca ptr, align 8
  store ptr %0, ptr %3, align 8, !tbaa !57
  store ptr %1, ptr %4, align 8, !tbaa !57
  %5 = load ptr, ptr %3, align 8
  %6 = getelementptr inbounds nuw %"class.lean::rb_map", ptr %5, i32 0, i32 0
  %7 = load ptr, ptr %4, align 8, !tbaa !57
  %8 = getelementptr inbounds nuw %"class.lean::rb_map", ptr %7, i32 0, i32 0
  %9 = call noundef nonnull align 8 dereferenceable(8) ptr @_ZN4lean7rb_treeISt4pairINS_12_GLOBAL__N_19cache_keyENS_4exprEENS_6rb_mapIS3_S4_NS2_13cache_key_cmpEE9entry_cmpEEaSERKSA_(ptr noundef nonnull align 8 dereferenceable(8) %6, ptr noundef nonnull align 8 dereferenceable(8) %8)
  ret ptr %5
}

; Function Attrs: mustprogress nounwind uwtable
define internal void @_ZN4lean4fletINS_6rb_mapINS_12_GLOBAL__N_19cache_keyENS_4exprENS2_13cache_key_cmpEEEED2Ev(ptr noundef nonnull align 8 dereferenceable(16) %0) unnamed_addr #4 align 2 personality ptr @__gxx_personality_v0 {
  %2 = alloca ptr, align 8
  store ptr %0, ptr %2, align 8, !tbaa !282
  %3 = load ptr, ptr %2, align 8
  %4 = getelementptr inbounds nuw %"class.lean::flet.58", ptr %3, i32 0, i32 1
  %5 = getelementptr inbounds nuw %"class.lean::flet.58", ptr %3, i32 0, i32 0
  %6 = load ptr, ptr %5, align 8, !tbaa !284
  %7 = invoke noundef nonnull align 8 dereferenceable(8) ptr @_ZN4lean6rb_mapINS_12_GLOBAL__N_19cache_keyENS_4exprENS1_13cache_key_cmpEEaSERKS5_(ptr noundef nonnull align 8 dereferenceable(8) %6, ptr noundef nonnull align 8 dereferenceable(8) %4)
          to label %8 unwind label %10

8:                                                ; preds = %1
  %9 = getelementptr inbounds nuw %"class.lean::flet.58", ptr %3, i32 0, i32 1
  call void @_ZN4lean6rb_mapINS_12_GLOBAL__N_19cache_keyENS_4exprENS1_13cache_key_cmpEED2Ev(ptr noundef nonnull align 8 dereferenceable(8) %9) #15
  ret void

10:                                               ; preds = %1
  %11 = landingpad { ptr, i32 }
          catch ptr null
  %12 = extractvalue { ptr, i32 } %11, 0
  call void @__clang_call_terminate(ptr %12) #16
  unreachable
}