; Function Attrs: mustprogress nounwind uwtable
define internal fastcc void @_ZN4lean4fletINS_6rb_mapINS_12_GLOBAL__N_19cache_keyENS_4exprENS2_13cache_key_cmpEEEED2Ev(ptr noundef nonnull readonly align 8 captures(none) dereferenceable(16) %0) unnamed_addr #4 align 2 personality ptr @__gxx_personality_v0 {
  %2 = getelementptr inbounds nuw i8, ptr %0, i64 8
  %3 = load ptr, ptr %0, align 8, !tbaa !333
  %4 = load ptr, ptr %2, align 8, !tbaa !15
  %.not.i.i.i = icmp eq ptr %4, null
  br i1 %.not.i.i.i, label %8, label %5

5:                                                ; preds = %1
  %6 = getelementptr inbounds nuw i8, ptr %4, i64 44
  %7 = atomicrmw add ptr %6, i32 1 monotonic, align 4
  %.pre.i.i.i = load ptr, ptr %2, align 8, !tbaa !15
  br label %8

8:                                                ; preds = %5, %1
  %9 = phi ptr [ %.pre.i.i.i, %5 ], [ null, %1 ]
  %10 = load ptr, ptr %3, align 8, !tbaa !15
  %.not6.i.i.i = icmp eq ptr %10, null
  br i1 %.not6.i.i.i, label %12, label %11

11:                                               ; preds = %8
  tail call fastcc void @_ZN4lean7rb_treeISt4pairINS_12_GLOBAL__N_19cache_keyENS_4exprEENS_6rb_mapIS3_S4_NS2_13cache_key_cmpEE9entry_cmpEE9node_cell7dec_refEv(ptr noundef nonnull align 8 dereferenceable(48) %10)
  br label %12

12:                                               ; preds = %11, %8
  store ptr %9, ptr %3, align 8, !tbaa !15
  tail call fastcc void @_ZN4lean7rb_treeISt4pairINS_12_GLOBAL__N_19cache_keyENS_4exprEENS_6rb_mapIS3_S4_NS2_13cache_key_cmpEE9entry_cmpEE4nodeD2Ev(ptr noundef nonnull readonly align 8 dereferenceable(8) %2) #17
  ret void
}